(lp0
(S'version.txt'
p1
S'/usr/share/arduino/lib/version.txt'
p2
tp3
a(S'build_dir'
p4
S'.build/mega'
p5
tp6
a(S'board_models'
p7
cino.environment
BoardModels
p8
((lp9
(lp10
S'menu'
p11
a(dp12
S'cpu'
p13
S'Processor'
p14
sS'_coredir'
p15
S'/usr/share/arduino/hardware/archlinux-arduino/avr'
p16
saa(lp17
S'yun'
p18
a(dp19
S'name'
p20
S'Arduino Y\xc3\xban'
p21
sS'vid'
p22
(dp23
S'1'
p24
S'0x2341'
p25
sS'0'
p26
S'0x2341'
p27
sS'3'
p28
S'0x2A03'
p29
sS'2'
p30
S'0x2A03'
p31
ssS'pid'
p32
(dp33
g24
S'0x8041'
p34
sg26
S'0x0041'
p35
sg28
S'0x8041'
p36
sg30
S'0x0041'
p37
ssS'upload'
p38
(dp39
S'protocol'
p40
S'avr109'
p41
sS'disable_flushing'
p42
S'true'
p43
sS'tool'
p44
S'avrdude'
p45
sS'maximum_data_size'
p46
S'2560'
p47
sS'via_ssh'
p48
S'true'
p49
sS'maximum_size'
p50
S'28672'
p51
sS'use_1200bps_touch'
p52
S'true'
p53
sS'speed'
p54
S'57600'
p55
sS'wait_for_upload_port'
p56
S'true'
p57
ssS'build'
p58
(dp59
S'core'
p60
S'arduino'
p61
sS'f_cpu'
p62
S'16000000L'
p63
sS'vid'
p64
S'0x2341'
p65
sS'usb_product'
p66
S'"Arduino Yun"'
p67
sS'pid'
p68
S'0x8041'
p69
sS'extra_flags'
p70
S'{build.usb_flags}'
p71
sS'board'
p72
S'AVR_YUN'
p73
sS'mcu'
p74
S'atmega32u4'
p75
sS'variant'
p76
S'yun'
p77
ssg15
S'/usr/share/arduino/hardware/archlinux-arduino/avr'
p78
sS'bootloader'
p79
(dp80
S'extended_fuses'
p81
S'0xfb'
p82
sS'high_fuses'
p83
S'0xd8'
p84
sS'low_fuses'
p85
S'0xff'
p86
sS'lock_bits'
p87
S'0x2F'
p88
sS'tool'
p89
S'avrdude'
p90
sS'noblink'
p91
S'caterina/Caterina-Yun-noblink.hex'
p92
sS'file'
p93
S'caterina/Caterina-Yun.hex'
p94
sS'unlock_bits'
p95
S'0x3F'
p96
ssaa(lp97
S'uno'
p98
a(dp99
S'name'
p100
S'Arduino/Genuino Uno'
p101
sS'vid'
p102
(dp103
g24
S'0x2341'
p104
sg26
S'0x2341'
p105
sg28
S'0x2341'
p106
sg30
S'0x2A03'
p107
ssS'pid'
p108
(dp109
g24
S'0x0001'
p110
sg26
S'0x0043'
p111
sg28
S'0x0243'
p112
sg30
S'0x0043'
p113
ssS'upload'
p114
(dp115
S'speed'
p116
S'115200'
p117
sS'tool'
p118
S'avrdude'
p119
sS'protocol'
p120
S'arduino'
p121
sS'maximum_size'
p122
S'32256'
p123
sS'maximum_data_size'
p124
S'2048'
p125
ssS'build'
p126
(dp127
S'core'
p128
S'arduino'
p129
sS'mcu'
p130
S'atmega328p'
p131
sS'f_cpu'
p132
S'16000000L'
p133
sS'board'
p134
S'AVR_UNO'
p135
sS'variant'
p136
S'standard'
p137
ssg15
S'/usr/share/arduino/hardware/archlinux-arduino/avr'
p138
sS'bootloader'
p139
(dp140
S'extended_fuses'
p141
S'0xFD'
p142
sS'high_fuses'
p143
S'0xDE'
p144
sS'low_fuses'
p145
S'0xFF'
p146
sS'lock_bits'
p147
S'0x0F'
p148
sS'tool'
p149
S'avrdude'
p150
sS'file'
p151
S'optiboot/optiboot_atmega328.hex'
p152
sS'unlock_bits'
p153
S'0x3F'
p154
ssaa(lp155
S'diecimila'
p156
a(dp157
S'name'
p158
S'Arduino Duemilanove or Diecimila'
p159
sS'menu'
p160
(dp161
S'cpu'
p162
(dp163
S'atmega168'
p164
(dp165
S'bootloader'
p166
(dp167
S'extended_fuses'
p168
S'0xF8'
p169
sS'high_fuses'
p170
S'0xdd'
p171
sS'file'
p172
S'atmega/ATmegaBOOT_168_diecimila.hex'
p173
ssS'upload'
p174
(dp175
S'maximum_size'
p176
S'14336'
p177
sS'speed'
p178
S'19200'
p179
sS'maximum_data_size'
p180
S'1024'
p181
ssS'_'
p182
S'ATmega168'
p183
sS'build'
p184
(dp185
S'mcu'
p186
S'atmega168'
p187
sssS'atmega328'
p188
(dp189
S'bootloader'
p190
(dp191
S'extended_fuses'
p192
S'0xFD'
p193
sS'high_fuses'
p194
S'0xDA'
p195
sS'file'
p196
S'atmega/ATmegaBOOT_168_atmega328.hex'
p197
ssS'upload'
p198
(dp199
S'maximum_size'
p200
S'30720'
p201
sS'speed'
p202
S'57600'
p203
sS'maximum_data_size'
p204
S'2048'
p205
ssg182
S'ATmega328'
p206
sS'build'
p207
(dp208
S'mcu'
p209
S'atmega328p'
p210
sssssS'upload'
p211
(dp212
S'tool'
p213
S'avrdude'
p214
sS'protocol'
p215
S'arduino'
p216
ssS'build'
p217
(dp218
S'core'
p219
S'arduino'
p220
sS'f_cpu'
p221
S'16000000L'
p222
sS'board'
p223
S'AVR_DUEMILANOVE'
p224
sS'variant'
p225
S'standard'
p226
ssg15
S'/usr/share/arduino/hardware/archlinux-arduino/avr'
p227
sS'bootloader'
p228
(dp229
S'low_fuses'
p230
S'0xFF'
p231
sS'lock_bits'
p232
S'0x0F'
p233
sS'tool'
p234
S'avrdude'
p235
sS'unlock_bits'
p236
S'0x3F'
p237
ssaa(lp238
S'nano'
p239
a(dp240
S'name'
p241
S'Arduino Nano'
p242
sS'menu'
p243
(dp244
S'cpu'
p245
(dp246
S'atmega168'
p247
(dp248
S'bootloader'
p249
(dp250
S'low_fuses'
p251
S'0xff'
p252
sS'extended_fuses'
p253
S'0xF8'
p254
sS'high_fuses'
p255
S'0xdd'
p256
sS'file'
p257
S'atmega/ATmegaBOOT_168_diecimila.hex'
p258
ssS'upload'
p259
(dp260
S'maximum_size'
p261
S'14336'
p262
sS'speed'
p263
S'19200'
p264
sS'maximum_data_size'
p265
S'1024'
p266
ssg182
S'ATmega168'
p267
sS'build'
p268
(dp269
S'mcu'
p270
S'atmega168'
p271
sssS'atmega328'
p272
(dp273
S'bootloader'
p274
(dp275
S'low_fuses'
p276
S'0xFF'
p277
sS'extended_fuses'
p278
S'0xFD'
p279
sS'high_fuses'
p280
S'0xDA'
p281
sS'file'
p282
S'atmega/ATmegaBOOT_168_atmega328.hex'
p283
ssS'upload'
p284
(dp285
S'maximum_size'
p286
S'30720'
p287
sS'speed'
p288
S'57600'
p289
sS'maximum_data_size'
p290
S'2048'
p291
ssg182
S'ATmega328'
p292
sS'build'
p293
(dp294
S'mcu'
p295
S'atmega328p'
p296
sssssS'upload'
p297
(dp298
S'tool'
p299
S'avrdude'
p300
sS'protocol'
p301
S'arduino'
p302
ssS'build'
p303
(dp304
S'core'
p305
S'arduino'
p306
sS'f_cpu'
p307
S'16000000L'
p308
sS'board'
p309
S'AVR_NANO'
p310
sS'variant'
p311
S'eightanaloginputs'
p312
ssg15
S'/usr/share/arduino/hardware/archlinux-arduino/avr'
p313
sS'bootloader'
p314
(dp315
S'lock_bits'
p316
S'0x0F'
p317
sS'tool'
p318
S'avrdude'
p319
sS'unlock_bits'
p320
S'0x3F'
p321
ssaa(lp322
S'mega'
p323
a(dp324
S'name'
p325
S'Arduino/Genuino Mega or Mega 2560'
p326
sS'vid'
p327
(dp328
g24
S'0x2341'
p329
sg26
S'0x2341'
p330
sg28
S'0x2A03'
p331
sg30
S'0x2A03'
p332
sS'5'
p333
S'0x2341'
p334
sS'4'
p335
S'0x2341'
p336
ssS'menu'
p337
(dp338
S'cpu'
p339
(dp340
S'atmega1280'
p341
(dp342
S'bootloader'
p343
(dp344
S'extended_fuses'
p345
S'0xF5'
p346
sS'high_fuses'
p347
S'0xDA'
p348
sS'file'
p349
S'atmega/ATmegaBOOT_168_atmega1280.hex'
p350
ssS'upload'
p351
(dp352
S'speed'
p353
S'57600'
p354
sS'maximum_size'
p355
S'126976'
p356
sS'protocol'
p357
S'arduino'
p358
ssg182
S'ATmega1280'
p359
sS'build'
p360
(dp361
S'mcu'
p362
S'atmega1280'
p363
sS'board'
p364
S'AVR_MEGA'
p365
sssS'atmega2560'
p366
(dp367
S'bootloader'
p368
(dp369
S'extended_fuses'
p370
S'0xFD'
p371
sS'high_fuses'
p372
S'0xD8'
p373
sS'file'
p374
S'stk500v2/stk500boot_v2_mega2560.hex'
p375
ssS'upload'
p376
(dp377
S'speed'
p378
S'115200'
p379
sS'maximum_size'
p380
S'253952'
p381
sS'protocol'
p382
S'wiring'
p383
ssg182
S'ATmega2560 (Mega 2560)'
p384
sS'build'
p385
(dp386
S'mcu'
p387
S'atmega2560'
p388
sS'board'
p389
S'AVR_MEGA2560'
p390
sssssS'pid'
p391
(dp392
g24
S'0x0042'
p393
sg26
S'0x0010'
p394
sg28
S'0x0042'
p395
sg30
S'0x0010'
p396
sg333
S'0x0242'
p397
sg335
S'0x0210'
p398
ssS'upload'
p399
(dp400
S'tool'
p401
S'avrdude'
p402
sS'maximum_data_size'
p403
S'8192'
p404
ssS'build'
p405
(dp406
S'core'
p407
S'arduino'
p408
sS'f_cpu'
p409
S'16000000L'
p410
sS'board'
p411
S'AVR_MEGA2560'
p412
sS'variant'
p413
S'mega'
p414
ssg15
S'/usr/share/arduino/hardware/archlinux-arduino/avr'
p415
sS'bootloader'
p416
(dp417
S'low_fuses'
p418
S'0xFF'
p419
sS'lock_bits'
p420
S'0x0F'
p421
sS'tool'
p422
S'avrdude'
p423
sS'unlock_bits'
p424
S'0x3F'
p425
ssaa(lp426
S'megaADK'
p427
a(dp428
S'name'
p429
S'Arduino Mega ADK'
p430
sS'vid'
p431
(dp432
g24
S'0x2341'
p433
sg26
S'0x2341'
p434
sg28
S'0x2A03'
p435
sg30
S'0x2A03'
p436
ssS'pid'
p437
(dp438
g24
S'0x0044'
p439
sg26
S'0x003f'
p440
sg28
S'0x0044'
p441
sg30
S'0x003f'
p442
ssS'upload'
p443
(dp444
S'speed'
p445
S'115200'
p446
sS'tool'
p447
S'avrdude'
p448
sS'protocol'
p449
S'wiring'
p450
sS'maximum_size'
p451
S'253952'
p452
sS'maximum_data_size'
p453
S'8192'
p454
ssS'build'
p455
(dp456
S'core'
p457
S'arduino'
p458
sS'mcu'
p459
S'atmega2560'
p460
sS'f_cpu'
p461
S'16000000L'
p462
sS'board'
p463
S'AVR_ADK'
p464
sS'variant'
p465
S'mega'
p466
ssg15
S'/usr/share/arduino/hardware/archlinux-arduino/avr'
p467
sS'bootloader'
p468
(dp469
S'extended_fuses'
p470
S'0xFD'
p471
sS'high_fuses'
p472
S'0xD8'
p473
sS'low_fuses'
p474
S'0xFF'
p475
sS'lock_bits'
p476
S'0x0F'
p477
sS'tool'
p478
S'avrdude'
p479
sS'file'
p480
S'stk500v2/stk500boot_v2_mega2560.hex'
p481
sS'unlock_bits'
p482
S'0x3F'
p483
ssaa(lp484
S'leonardo'
p485
a(dp486
S'name'
p487
S'Arduino Leonardo'
p488
sS'vid'
p489
(dp490
g24
S'0x2341'
p491
sg26
S'0x2341'
p492
sg28
S'0x2A03'
p493
sg30
S'0x2A03'
p494
ssS'pid'
p495
(dp496
g24
S'0x8036'
p497
sg26
S'0x0036'
p498
sg28
S'0x8036'
p499
sg30
S'0x0036'
p500
ssS'upload'
p501
(dp502
S'protocol'
p503
S'avr109'
p504
sS'disable_flushing'
p505
S'true'
p506
sS'tool'
p507
S'avrdude'
p508
sS'maximum_data_size'
p509
S'2560'
p510
sS'maximum_size'
p511
S'28672'
p512
sS'use_1200bps_touch'
p513
S'true'
p514
sS'speed'
p515
S'57600'
p516
sS'wait_for_upload_port'
p517
S'true'
p518
ssS'build'
p519
(dp520
S'core'
p521
S'arduino'
p522
sS'f_cpu'
p523
S'16000000L'
p524
sS'vid'
p525
S'0x2341'
p526
sS'usb_product'
p527
S'"Arduino Leonardo"'
p528
sS'pid'
p529
S'0x8036'
p530
sS'extra_flags'
p531
S'{build.usb_flags}'
p532
sS'board'
p533
S'AVR_LEONARDO'
p534
sS'mcu'
p535
S'atmega32u4'
p536
sS'variant'
p537
S'leonardo'
p538
ssg15
S'/usr/share/arduino/hardware/archlinux-arduino/avr'
p539
sS'bootloader'
p540
(dp541
S'extended_fuses'
p542
S'0xcb'
p543
sS'high_fuses'
p544
S'0xd8'
p545
sS'low_fuses'
p546
S'0xff'
p547
sS'lock_bits'
p548
S'0x2F'
p549
sS'tool'
p550
S'avrdude'
p551
sS'file'
p552
S'caterina/Caterina-Leonardo.hex'
p553
sS'unlock_bits'
p554
S'0x3F'
p555
ssaa(lp556
S'leonardoeth'
p557
a(dp558
S'name'
p559
S'Arduino Leonardo ETH'
p560
sS'vid'
p561
(dp562
g24
S'0x2a03'
p563
sg26
S'0x2a03'
p564
ssS'pid'
p565
(dp566
g24
S'0x8040'
p567
sg26
S'0x0040'
p568
ssS'upload'
p569
(dp570
S'protocol'
p571
S'avr109'
p572
sS'disable_flushing'
p573
S'true'
p574
sS'tool'
p575
S'avrdude'
p576
sS'maximum_data_size'
p577
S'2560'
p578
sS'maximum_size'
p579
S'28672'
p580
sS'use_1200bps_touch'
p581
S'true'
p582
sS'speed'
p583
S'57600'
p584
sS'wait_for_upload_port'
p585
S'true'
p586
ssS'build'
p587
(dp588
S'core'
p589
S'arduino'
p590
sS'f_cpu'
p591
S'16000000L'
p592
sS'vid'
p593
S'0x2a03'
p594
sS'usb_product'
p595
S'"Arduino Leonardo ETH"'
p596
sS'pid'
p597
S'0x8040'
p598
sS'extra_flags'
p599
S'{build.usb_flags}'
p600
sS'board'
p601
S'AVR_LEONARDO_ETH'
p602
sS'mcu'
p603
S'atmega32u4'
p604
sS'variant'
p605
S'leonardo'
p606
ssg15
S'/usr/share/arduino/hardware/archlinux-arduino/avr'
p607
sS'bootloader'
p608
(dp609
S'extended_fuses'
p610
S'0xcb'
p611
sS'high_fuses'
p612
S'0xd8'
p613
sS'low_fuses'
p614
S'0xff'
p615
sS'lock_bits'
p616
S'0x2F'
p617
sS'tool'
p618
S'avrdude'
p619
sS'file'
p620
S'caterina/Caterina-LeonardoEthernet.hex'
p621
sS'unlock_bits'
p622
S'0x3F'
p623
ssaa(lp624
S'micro'
p625
a(dp626
S'name'
p627
S'Arduino/Genuino Micro'
p628
sS'vid'
p629
(dp630
g24
S'0x2341'
p631
sg26
S'0x2341'
p632
sg28
S'0x2A03'
p633
sg30
S'0x2A03'
p634
sg333
(dp635
S'bootloader'
p636
(dp637
S'file'
p638
S'caterina/Caterina-Genuino-Micro.hex'
p639
ssS'build'
p640
(dp641
S'usb_product'
p642
S'"Genuino Micro"'
p643
sS'pid'
p644
S'0x8237'
p645
sS'vid'
p646
S'0x2341'
p647
ssg182
S'0x2341'
p648
ssg335
(dp649
S'bootloader'
p650
(dp651
S'file'
p652
S'caterina/Caterina-Genuino-Micro.hex'
p653
ssS'build'
p654
(dp655
S'usb_product'
p656
S'"Genuino Micro"'
p657
sS'pid'
p658
S'0x8237'
p659
sS'vid'
p660
S'0x2341'
p661
ssg182
S'0x2341'
p662
sssS'pid'
p663
(dp664
g24
S'0x8037'
p665
sg26
S'0x0037'
p666
sg28
S'0x8037'
p667
sg30
S'0x0037'
p668
sg333
S'0x8237'
p669
sg335
S'0x0237'
p670
ssS'upload'
p671
(dp672
S'protocol'
p673
S'avr109'
p674
sS'disable_flushing'
p675
S'true'
p676
sS'tool'
p677
S'avrdude'
p678
sS'maximum_data_size'
p679
S'2560'
p680
sS'maximum_size'
p681
S'28672'
p682
sS'use_1200bps_touch'
p683
S'true'
p684
sS'speed'
p685
S'57600'
p686
sS'wait_for_upload_port'
p687
S'true'
p688
ssS'build'
p689
(dp690
S'core'
p691
S'arduino'
p692
sS'f_cpu'
p693
S'16000000L'
p694
sS'vid'
p695
S'0x2341'
p696
sS'usb_product'
p697
S'"Arduino Micro"'
p698
sS'pid'
p699
S'0x8037'
p700
sS'extra_flags'
p701
S'{build.usb_flags}'
p702
sS'board'
p703
S'AVR_MICRO'
p704
sS'mcu'
p705
S'atmega32u4'
p706
sS'variant'
p707
S'micro'
p708
ssg15
S'/usr/share/arduino/hardware/archlinux-arduino/avr'
p709
sS'bootloader'
p710
(dp711
S'extended_fuses'
p712
S'0xcb'
p713
sS'high_fuses'
p714
S'0xd8'
p715
sS'low_fuses'
p716
S'0xff'
p717
sS'lock_bits'
p718
S'0x2F'
p719
sS'tool'
p720
S'avrdude'
p721
sS'file'
p722
S'caterina/Caterina-Micro.hex'
p723
sS'unlock_bits'
p724
S'0x3F'
p725
ssaa(lp726
S'esplora'
p727
a(dp728
S'name'
p729
S'Arduino Esplora'
p730
sS'vid'
p731
(dp732
g24
S'0x2341'
p733
sg26
S'0x2341'
p734
sg28
S'0x2A03'
p735
sg30
S'0x2A03'
p736
ssS'pid'
p737
(dp738
g24
S'0x803C'
p739
sg26
S'0x003C'
p740
sg28
S'0x803C'
p741
sg30
S'0x003C'
p742
ssS'upload'
p743
(dp744
S'protocol'
p745
S'avr109'
p746
sS'disable_flushing'
p747
S'true'
p748
sS'tool'
p749
S'avrdude'
p750
sS'maximum_data_size'
p751
S'2560'
p752
sS'maximum_size'
p753
S'28672'
p754
sS'use_1200bps_touch'
p755
S'true'
p756
sS'speed'
p757
S'57600'
p758
sS'wait_for_upload_port'
p759
S'true'
p760
ssS'build'
p761
(dp762
S'core'
p763
S'arduino'
p764
sS'f_cpu'
p765
S'16000000L'
p766
sS'vid'
p767
S'0x2341'
p768
sS'usb_product'
p769
S'"Arduino Esplora"'
p770
sS'pid'
p771
S'0x803c'
p772
sS'extra_flags'
p773
S'{build.usb_flags}'
p774
sS'board'
p775
S'AVR_ESPLORA'
p776
sS'mcu'
p777
S'atmega32u4'
p778
sS'variant'
p779
S'leonardo'
p780
ssg15
S'/usr/share/arduino/hardware/archlinux-arduino/avr'
p781
sS'bootloader'
p782
(dp783
S'extended_fuses'
p784
S'0xcb'
p785
sS'high_fuses'
p786
S'0xd8'
p787
sS'low_fuses'
p788
S'0xff'
p789
sS'lock_bits'
p790
S'0x2F'
p791
sS'tool'
p792
S'avrdude'
p793
sS'file'
p794
S'caterina/Caterina-Esplora.hex'
p795
sS'unlock_bits'
p796
S'0x3F'
p797
ssaa(lp798
S'mini'
p799
a(dp800
S'name'
p801
S'Arduino Mini'
p802
sS'menu'
p803
(dp804
S'cpu'
p805
(dp806
S'atmega168'
p807
(dp808
S'bootloader'
p809
(dp810
S'extended_fuses'
p811
S'0xF8'
p812
sS'high_fuses'
p813
S'0xdd'
p814
sS'file'
p815
S'atmega/ATmegaBOOT_168_ng.hex'
p816
ssS'upload'
p817
(dp818
S'maximum_size'
p819
S'14336'
p820
sS'speed'
p821
S'19200'
p822
sS'maximum_data_size'
p823
S'1024'
p824
ssg182
S'ATmega168'
p825
sS'build'
p826
(dp827
S'mcu'
p828
S'atmega168'
p829
sssS'atmega328'
p830
(dp831
S'bootloader'
p832
(dp833
S'extended_fuses'
p834
S'0xFD'
p835
sS'high_fuses'
p836
S'0xd8'
p837
sS'file'
p838
S'optiboot/optiboot_atmega328-Mini.hex'
p839
ssS'upload'
p840
(dp841
S'maximum_size'
p842
S'28672'
p843
sS'speed'
p844
S'115200'
p845
sS'maximum_data_size'
p846
S'2048'
p847
ssg182
S'ATmega328'
p848
sS'build'
p849
(dp850
S'mcu'
p851
S'atmega328p'
p852
sssssS'upload'
p853
(dp854
S'tool'
p855
S'avrdude'
p856
sS'protocol'
p857
S'arduino'
p858
ssS'build'
p859
(dp860
S'core'
p861
S'arduino'
p862
sS'f_cpu'
p863
S'16000000L'
p864
sS'board'
p865
S'AVR_MINI'
p866
sS'variant'
p867
S'eightanaloginputs'
p868
ssg15
S'/usr/share/arduino/hardware/archlinux-arduino/avr'
p869
sS'bootloader'
p870
(dp871
S'low_fuses'
p872
S'0xff'
p873
sS'lock_bits'
p874
S'0x0F'
p875
sS'tool'
p876
S'avrdude'
p877
sS'unlock_bits'
p878
S'0x3F'
p879
ssaa(lp880
S'ethernet'
p881
a(dp882
S'build'
p883
(dp884
S'f_cpu'
p885
S'16000000L'
p886
sS'mcu'
p887
S'atmega328p'
p888
sS'variant'
p889
S'ethernet'
p890
sS'board'
p891
S'AVR_ETHERNET'
p892
sS'core'
p893
S'arduino'
p894
ssS'bootloader'
p895
(dp896
S'extended_fuses'
p897
S'0xFD'
p898
sS'high_fuses'
p899
S'0xde'
p900
sS'low_fuses'
p901
S'0xff'
p902
sS'lock_bits'
p903
S'0x0F'
p904
sS'tool'
p905
S'avrdude'
p906
sS'file'
p907
S'optiboot/optiboot_atmega328.hex'
p908
sS'unlock_bits'
p909
S'0x3F'
p910
ssS'upload'
p911
(dp912
S'speed'
p913
S'115200'
p914
sS'tool'
p915
S'avrdude'
p916
sS'protocol'
p917
S'arduino'
p918
sS'maximum_size'
p919
S'32256'
p920
sS'maximum_data_size'
p921
S'2048'
p922
ssS'name'
p923
S'Arduino Ethernet'
p924
sg15
S'/usr/share/arduino/hardware/archlinux-arduino/avr'
p925
saa(lp926
S'fio'
p927
a(dp928
S'build'
p929
(dp930
S'core'
p931
S'arduino'
p932
sS'mcu'
p933
S'atmega328p'
p934
sS'f_cpu'
p935
S'8000000L'
p936
sS'board'
p937
S'AVR_FIO'
p938
sS'variant'
p939
S'eightanaloginputs'
p940
ssS'bootloader'
p941
(dp942
S'extended_fuses'
p943
S'0xFD'
p944
sS'high_fuses'
p945
S'0xDA'
p946
sS'low_fuses'
p947
S'0xFF'
p948
sS'lock_bits'
p949
S'0x0F'
p950
sS'tool'
p951
S'avrdude'
p952
sS'file'
p953
S'atmega/ATmegaBOOT_168_atmega328_pro_8MHz.hex'
p954
sS'unlock_bits'
p955
S'0x3F'
p956
ssS'upload'
p957
(dp958
S'speed'
p959
S'57600'
p960
sS'tool'
p961
S'avrdude'
p962
sS'protocol'
p963
S'arduino'
p964
sS'maximum_size'
p965
S'30720'
p966
sS'maximum_data_size'
p967
S'2048'
p968
ssS'name'
p969
S'Arduino Fio'
p970
sg15
S'/usr/share/arduino/hardware/archlinux-arduino/avr'
p971
saa(lp972
S'bt'
p973
a(dp974
S'name'
p975
S'Arduino BT'
p976
sS'menu'
p977
(dp978
S'cpu'
p979
(dp980
S'atmega168'
p981
(dp982
S'bootloader'
p983
(dp984
S'extended_fuses'
p985
S'0xF8'
p986
sS'high_fuses'
p987
S'0xdd'
p988
sS'file'
p989
S'bt/ATmegaBOOT_168.hex'
p990
ssS'upload'
p991
(dp992
S'maximum_size'
p993
S'14336'
p994
sS'maximum_data_size'
p995
S'1024'
p996
ssg182
S'ATmega168'
p997
sS'build'
p998
(dp999
S'mcu'
p1000
S'atmega168'
p1001
sssS'atmega328'
p1002
(dp1003
S'bootloader'
p1004
(dp1005
S'extended_fuses'
p1006
S'0xFD'
p1007
sS'high_fuses'
p1008
S'0xd8'
p1009
sS'file'
p1010
S'bt/ATmegaBOOT_168_atmega328_bt.hex'
p1011
ssS'upload'
p1012
(dp1013
S'maximum_size'
p1014
S'28672'
p1015
sS'maximum_data_size'
p1016
S'2048'
p1017
ssg182
S'ATmega328'
p1018
sS'build'
p1019
(dp1020
S'mcu'
p1021
S'atmega328p'
p1022
sssssS'upload'
p1023
(dp1024
S'speed'
p1025
S'19200'
p1026
sS'tool'
p1027
S'avrdude'
p1028
sS'protocol'
p1029
S'arduino'
p1030
sS'disable_flushing'
p1031
S'true'
p1032
ssS'build'
p1033
(dp1034
S'core'
p1035
S'arduino'
p1036
sS'f_cpu'
p1037
S'16000000L'
p1038
sS'board'
p1039
S'AVR_BT'
p1040
sS'variant'
p1041
S'eightanaloginputs'
p1042
ssg15
S'/usr/share/arduino/hardware/archlinux-arduino/avr'
p1043
sS'bootloader'
p1044
(dp1045
S'low_fuses'
p1046
S'0xff'
p1047
sS'lock_bits'
p1048
S'0x0F'
p1049
sS'tool'
p1050
S'avrdude'
p1051
sS'unlock_bits'
p1052
S'0x3F'
p1053
ssaa(lp1054
S'LilyPadUSB'
p1055
a(dp1056
S'name'
p1057
S'LilyPad Arduino USB'
p1058
sS'vid'
p1059
(dp1060
g24
S'0x1B4F'
p1061
sg26
S'0x1B4F'
p1062
ssS'pid'
p1063
(dp1064
g24
S'0x9208'
p1065
sg26
S'0x9207'
p1066
ssS'upload'
p1067
(dp1068
S'protocol'
p1069
S'avr109'
p1070
sS'disable_flushing'
p1071
S'true'
p1072
sS'tool'
p1073
S'avrdude'
p1074
sS'maximum_data_size'
p1075
S'2560'
p1076
sS'maximum_size'
p1077
S'28672'
p1078
sS'use_1200bps_touch'
p1079
S'true'
p1080
sS'speed'
p1081
S'57600'
p1082
sS'wait_for_upload_port'
p1083
S'true'
p1084
ssS'build'
p1085
(dp1086
S'core'
p1087
S'arduino'
p1088
sS'f_cpu'
p1089
S'8000000L'
p1090
sS'vid'
p1091
S'0x1B4F'
p1092
sS'usb_product'
p1093
S'"LilyPad USB"'
p1094
sS'pid'
p1095
S'0x9208'
p1096
sS'extra_flags'
p1097
S'{build.usb_flags}'
p1098
sS'board'
p1099
S'AVR_LILYPAD_USB'
p1100
sS'mcu'
p1101
S'atmega32u4'
p1102
sS'variant'
p1103
S'leonardo'
p1104
ssg15
S'/usr/share/arduino/hardware/archlinux-arduino/avr'
p1105
sS'bootloader'
p1106
(dp1107
S'extended_fuses'
p1108
S'0xce'
p1109
sS'high_fuses'
p1110
S'0xd8'
p1111
sS'low_fuses'
p1112
S'0xff'
p1113
sS'lock_bits'
p1114
S'0x2F'
p1115
sS'tool'
p1116
S'avrdude'
p1117
sS'file'
p1118
S'caterina-LilyPadUSB/Caterina-LilyPadUSB.hex'
p1119
sS'unlock_bits'
p1120
S'0x3F'
p1121
ssaa(lp1122
S'lilypad'
p1123
a(dp1124
S'name'
p1125
S'LilyPad Arduino'
p1126
sS'menu'
p1127
(dp1128
S'cpu'
p1129
(dp1130
S'atmega168'
p1131
(dp1132
S'bootloader'
p1133
(dp1134
S'low_fuses'
p1135
S'0xe2'
p1136
sS'extended_fuses'
p1137
S'0xF8'
p1138
sS'high_fuses'
p1139
S'0xdd'
p1140
sS'file'
p1141
S'lilypad/LilyPadBOOT_168.hex'
p1142
ssS'upload'
p1143
(dp1144
S'maximum_size'
p1145
S'14336'
p1146
sS'speed'
p1147
S'19200'
p1148
sS'maximum_data_size'
p1149
S'1024'
p1150
ssg182
S'ATmega168'
p1151
sS'build'
p1152
(dp1153
S'mcu'
p1154
S'atmega168'
p1155
sssS'atmega328'
p1156
(dp1157
S'bootloader'
p1158
(dp1159
S'low_fuses'
p1160
S'0xFF'
p1161
sS'extended_fuses'
p1162
S'0xFD'
p1163
sS'high_fuses'
p1164
S'0xDA'
p1165
sS'file'
p1166
S'atmega/ATmegaBOOT_168_atmega328_pro_8MHz.hex'
p1167
ssS'upload'
p1168
(dp1169
S'maximum_size'
p1170
S'30720'
p1171
sS'speed'
p1172
S'57600'
p1173
sS'maximum_data_size'
p1174
S'2048'
p1175
ssg182
S'ATmega328'
p1176
sS'build'
p1177
(dp1178
S'mcu'
p1179
S'atmega328p'
p1180
sssssS'upload'
p1181
(dp1182
S'tool'
p1183
S'avrdude'
p1184
sS'protocol'
p1185
S'arduino'
p1186
ssS'build'
p1187
(dp1188
S'core'
p1189
S'arduino'
p1190
sS'f_cpu'
p1191
S'8000000L'
p1192
sS'board'
p1193
S'AVR_LILYPAD'
p1194
sS'variant'
p1195
S'standard'
p1196
ssg15
S'/usr/share/arduino/hardware/archlinux-arduino/avr'
p1197
sS'bootloader'
p1198
(dp1199
S'lock_bits'
p1200
S'0x0F'
p1201
sS'tool'
p1202
S'avrdude'
p1203
sS'unlock_bits'
p1204
S'0x3F'
p1205
ssaa(lp1206
S'pro'
p1207
a(dp1208
S'name'
p1209
S'Arduino Pro or Pro Mini'
p1210
sS'menu'
p1211
(dp1212
S'cpu'
p1213
(dp1214
S'16MHzatmega328'
p1215
(dp1216
S'bootloader'
p1217
(dp1218
S'low_fuses'
p1219
S'0xFF'
p1220
sS'extended_fuses'
p1221
S'0xFD'
p1222
sS'high_fuses'
p1223
S'0xDA'
p1224
sS'file'
p1225
S'atmega/ATmegaBOOT_168_atmega328.hex'
p1226
ssS'upload'
p1227
(dp1228
S'maximum_size'
p1229
S'30720'
p1230
sS'speed'
p1231
S'57600'
p1232
sS'maximum_data_size'
p1233
S'2048'
p1234
ssg182
S'ATmega328 (5V, 16 MHz)'
p1235
sS'build'
p1236
(dp1237
S'mcu'
p1238
S'atmega328p'
p1239
sS'f_cpu'
p1240
S'16000000L'
p1241
sssS'8MHzatmega328'
p1242
(dp1243
S'bootloader'
p1244
(dp1245
S'low_fuses'
p1246
S'0xFF'
p1247
sS'extended_fuses'
p1248
S'0xFD'
p1249
sS'high_fuses'
p1250
S'0xDA'
p1251
sS'file'
p1252
S'atmega/ATmegaBOOT_168_atmega328_pro_8MHz.hex'
p1253
ssS'upload'
p1254
(dp1255
S'maximum_size'
p1256
S'30720'
p1257
sS'speed'
p1258
S'57600'
p1259
sS'maximum_data_size'
p1260
S'2048'
p1261
ssg182
S'ATmega328 (3.3V, 8 MHz)'
p1262
sS'build'
p1263
(dp1264
S'mcu'
p1265
S'atmega328p'
p1266
sS'f_cpu'
p1267
S'8000000L'
p1268
sssS'8MHzatmega168'
p1269
(dp1270
S'bootloader'
p1271
(dp1272
S'low_fuses'
p1273
S'0xc6'
p1274
sS'extended_fuses'
p1275
S'0xF8'
p1276
sS'high_fuses'
p1277
S'0xdd'
p1278
sS'file'
p1279
S'atmega/ATmegaBOOT_168_pro_8MHz.hex'
p1280
ssS'upload'
p1281
(dp1282
S'maximum_size'
p1283
S'14336'
p1284
sS'speed'
p1285
S'19200'
p1286
sS'maximum_data_size'
p1287
S'1024'
p1288
ssg182
S'ATmega168 (3.3V, 8 MHz)'
p1289
sS'build'
p1290
(dp1291
S'mcu'
p1292
S'atmega168'
p1293
sS'f_cpu'
p1294
S'8000000L'
p1295
sssS'16MHzatmega168'
p1296
(dp1297
S'bootloader'
p1298
(dp1299
S'low_fuses'
p1300
S'0xff'
p1301
sS'extended_fuses'
p1302
S'0xF8'
p1303
sS'high_fuses'
p1304
S'0xdd'
p1305
sS'file'
p1306
S'atmega/ATmegaBOOT_168_diecimila.hex'
p1307
ssS'upload'
p1308
(dp1309
S'maximum_size'
p1310
S'14336'
p1311
sS'speed'
p1312
S'19200'
p1313
sS'maximum_data_size'
p1314
S'1024'
p1315
ssg182
S'ATmega168 (5V, 16 MHz)'
p1316
sS'build'
p1317
(dp1318
S'mcu'
p1319
S'atmega168'
p1320
sS'f_cpu'
p1321
S'16000000L'
p1322
sssssS'upload'
p1323
(dp1324
S'tool'
p1325
S'avrdude'
p1326
sS'protocol'
p1327
S'arduino'
p1328
ssS'build'
p1329
(dp1330
S'core'
p1331
S'arduino'
p1332
sS'variant'
p1333
S'eightanaloginputs'
p1334
sS'board'
p1335
S'AVR_PRO'
p1336
ssg15
S'/usr/share/arduino/hardware/archlinux-arduino/avr'
p1337
sS'bootloader'
p1338
(dp1339
S'lock_bits'
p1340
S'0x0F'
p1341
sS'tool'
p1342
S'avrdude'
p1343
sS'unlock_bits'
p1344
S'0x3F'
p1345
ssaa(lp1346
S'atmegang'
p1347
a(dp1348
S'name'
p1349
S'Arduino NG or older'
p1350
sS'menu'
p1351
(dp1352
S'cpu'
p1353
(dp1354
S'atmega168'
p1355
(dp1356
S'bootloader'
p1357
(dp1358
S'low_fuses'
p1359
S'0xff'
p1360
sS'extended_fuses'
p1361
S'0xF8'
p1362
sS'high_fuses'
p1363
S'0xdd'
p1364
sS'file'
p1365
S'atmega/ATmegaBOOT_168_ng.hex'
p1366
ssS'upload'
p1367
(dp1368
S'maximum_size'
p1369
S'14336'
p1370
sS'maximum_data_size'
p1371
S'1024'
p1372
ssg182
S'ATmega168'
p1373
sS'build'
p1374
(dp1375
S'mcu'
p1376
S'atmega168'
p1377
sssS'atmega8'
p1378
(dp1379
S'bootloader'
p1380
(dp1381
S'low_fuses'
p1382
S'0xdf'
p1383
sS'extended_fuses'
p1384
S''
p1385
sS'high_fuses'
p1386
S'0xca'
p1387
sS'file'
p1388
S'atmega8/ATmegaBOOT-prod-firmware-2009-11-07.hex'
p1389
ssS'upload'
p1390
(dp1391
S'maximum_size'
p1392
S'7168'
p1393
sS'maximum_data_size'
p1394
S'1024'
p1395
ssg182
S'ATmega8'
p1396
sS'build'
p1397
(dp1398
S'mcu'
p1399
S'atmega8'
p1400
sssssS'upload'
p1401
(dp1402
S'speed'
p1403
S'19200'
p1404
sS'tool'
p1405
S'avrdude'
p1406
sS'protocol'
p1407
S'arduino'
p1408
ssS'build'
p1409
(dp1410
S'core'
p1411
S'arduino'
p1412
sS'mcu'
p1413
S'atmegang'
p1414
sS'f_cpu'
p1415
S'16000000L'
p1416
sS'board'
p1417
S'AVR_NG'
p1418
sS'variant'
p1419
S'standard'
p1420
ssg15
S'/usr/share/arduino/hardware/archlinux-arduino/avr'
p1421
sS'bootloader'
p1422
(dp1423
S'lock_bits'
p1424
S'0x0F'
p1425
sS'tool'
p1426
S'avrdude'
p1427
sS'unlock_bits'
p1428
S'0x3F'
p1429
ssaa(lp1430
S'robotControl'
p1431
a(dp1432
S'name'
p1433
S'Arduino Robot Control'
p1434
sS'vid'
p1435
(dp1436
g24
S'0x2341'
p1437
sg26
S'0x2341'
p1438
sg28
S'0x2A03'
p1439
sg30
S'0x2A03'
p1440
ssS'pid'
p1441
(dp1442
g24
S'0x8038'
p1443
sg26
S'0x0038'
p1444
sg28
S'0x8038'
p1445
sg30
S'0x0038'
p1446
ssS'upload'
p1447
(dp1448
S'protocol'
p1449
S'avr109'
p1450
sS'disable_flushing'
p1451
S'true'
p1452
sS'tool'
p1453
S'avrdude'
p1454
sS'maximum_data_size'
p1455
S'2560'
p1456
sS'maximum_size'
p1457
S'28672'
p1458
sS'use_1200bps_touch'
p1459
S'true'
p1460
sS'speed'
p1461
S'57600'
p1462
sS'wait_for_upload_port'
p1463
S'true'
p1464
ssS'build'
p1465
(dp1466
S'core'
p1467
S'arduino'
p1468
sS'f_cpu'
p1469
S'16000000L'
p1470
sS'vid'
p1471
S'0x2341'
p1472
sS'usb_product'
p1473
S'"Robot Control"'
p1474
sS'pid'
p1475
S'0x8038'
p1476
sS'extra_flags'
p1477
S'{build.usb_flags}'
p1478
sS'board'
p1479
S'AVR_ROBOT_CONTROL'
p1480
sS'mcu'
p1481
S'atmega32u4'
p1482
sS'variant'
p1483
S'robot_control'
p1484
ssg15
S'/usr/share/arduino/hardware/archlinux-arduino/avr'
p1485
sS'bootloader'
p1486
(dp1487
S'extended_fuses'
p1488
S'0xcb'
p1489
sS'high_fuses'
p1490
S'0xd8'
p1491
sS'low_fuses'
p1492
S'0xff'
p1493
sS'lock_bits'
p1494
S'0x2F'
p1495
sS'tool'
p1496
S'avrdude'
p1497
sS'file'
p1498
S'caterina-Arduino_Robot/Caterina-Robot-Control.hex'
p1499
sS'unlock_bits'
p1500
S'0x3F'
p1501
ssaa(lp1502
S'robotMotor'
p1503
a(dp1504
S'name'
p1505
S'Arduino Robot Motor'
p1506
sS'vid'
p1507
(dp1508
g24
S'0x2341'
p1509
sg26
S'0x2341'
p1510
sg28
S'0x2A03'
p1511
sg30
S'0x2A03'
p1512
ssS'pid'
p1513
(dp1514
g24
S'0x8039'
p1515
sg26
S'0x0039'
p1516
sg28
S'0x8039'
p1517
sg30
S'0x0039'
p1518
ssS'upload'
p1519
(dp1520
S'protocol'
p1521
S'avr109'
p1522
sS'disable_flushing'
p1523
S'true'
p1524
sS'tool'
p1525
S'avrdude'
p1526
sS'maximum_data_size'
p1527
S'2560'
p1528
sS'maximum_size'
p1529
S'28672'
p1530
sS'use_1200bps_touch'
p1531
S'true'
p1532
sS'speed'
p1533
S'57600'
p1534
sS'wait_for_upload_port'
p1535
S'true'
p1536
ssS'build'
p1537
(dp1538
S'core'
p1539
S'arduino'
p1540
sS'f_cpu'
p1541
S'16000000L'
p1542
sS'vid'
p1543
S'0x2341'
p1544
sS'usb_product'
p1545
S'"Robot Motor"'
p1546
sS'pid'
p1547
S'0x8039'
p1548
sS'extra_flags'
p1549
S'{build.usb_flags}'
p1550
sS'board'
p1551
S'AVR_ROBOT_MOTOR'
p1552
sS'mcu'
p1553
S'atmega32u4'
p1554
sS'variant'
p1555
S'robot_motor'
p1556
ssg15
S'/usr/share/arduino/hardware/archlinux-arduino/avr'
p1557
sS'bootloader'
p1558
(dp1559
S'extended_fuses'
p1560
S'0xcb'
p1561
sS'high_fuses'
p1562
S'0xd8'
p1563
sS'low_fuses'
p1564
S'0xff'
p1565
sS'lock_bits'
p1566
S'0x2F'
p1567
sS'tool'
p1568
S'avrdude'
p1569
sS'file'
p1570
S'caterina-Arduino_Robot/Caterina-Robot-Motor.hex'
p1571
sS'unlock_bits'
p1572
S'0x3F'
p1573
ssaa(lp1574
S'gemma'
p1575
a(dp1576
S'name'
p1577
S'Arduino Gemma'
p1578
sS'vid'
p1579
(dp1580
g26
S'0x2341'
p1581
ssS'pid'
p1582
(dp1583
g26
S'0x0c9f'
p1584
ssS'upload'
p1585
(dp1586
S'tool'
p1587
S'avrdude'
p1588
sS'maximum_size'
p1589
S'5310'
p1590
ssS'build'
p1591
(dp1592
S'core'
p1593
S'arduino'
p1594
sS'mcu'
p1595
S'attiny85'
p1596
sS'f_cpu'
p1597
S'8000000L'
p1598
sS'board'
p1599
S'AVR_GEMMA'
p1600
sS'variant'
p1601
S'gemma'
p1602
ssg15
S'/usr/share/arduino/hardware/archlinux-arduino/avr'
p1603
sS'bootloader'
p1604
(dp1605
S'extended_fuses'
p1606
S'0xFE'
p1607
sS'high_fuses'
p1608
S'0xD5'
p1609
sS'low_fuses'
p1610
S'0xF1'
p1611
sS'lock_bits'
p1612
g1385
sS'tool'
p1613
S'avrdude'
p1614
sS'file'
p1615
S'gemma/gemma_v1.hex'
p1616
sS'unlock_bits'
p1617
g1385
ssaa(lp1618
S'circuitplay32u4cat'
p1619
a(dp1620
S'name'
p1621
S'Adafruit Circuit Playground'
p1622
sS'vid'
p1623
(dp1624
g26
S'0x239A'
p1625
ssS'pid'
p1626
(dp1627
g26
S'0x8011'
p1628
ssS'upload'
p1629
(dp1630
S'protocol'
p1631
S'avr109'
p1632
sS'disable_flushing'
p1633
S'true'
p1634
sS'tool'
p1635
S'avrdude'
p1636
sS'maximum_size'
p1637
S'28672'
p1638
sS'use_1200bps_touch'
p1639
S'true'
p1640
sS'speed'
p1641
S'57600'
p1642
sS'wait_for_upload_port'
p1643
S'true'
p1644
ssS'build'
p1645
(dp1646
S'core'
p1647
S'arduino'
p1648
sS'usb_manufacturer'
p1649
S'"Adafruit"'
p1650
sS'f_cpu'
p1651
S'8000000L'
p1652
sS'vid'
p1653
S'0x239A'
p1654
sS'pid'
p1655
S'0x8011'
p1656
sS'variant'
p1657
S'circuitplay32u4'
p1658
sS'extra_flags'
p1659
S'{build.usb_flags}'
p1660
sS'board'
p1661
S'AVR_CIRCUITPLAY'
p1662
sS'usb_product'
p1663
S'"Circuit Playground"'
p1664
sS'mcu'
p1665
S'atmega32u4'
p1666
ssg15
S'/usr/share/arduino/hardware/archlinux-arduino/avr'
p1667
sS'bootloader'
p1668
(dp1669
S'extended_fuses'
p1670
S'0xcb'
p1671
sS'high_fuses'
p1672
S'0xd8'
p1673
sS'low_fuses'
p1674
S'0xff'
p1675
sS'lock_bits'
p1676
S'0x2F'
p1677
sS'tool'
p1678
S'avrdude'
p1679
sS'file'
p1680
S'caterina/Caterina-Circuitplay32u4.hex'
p1681
sS'unlock_bits'
p1682
S'0x3F'
p1683
ssaa(lp1684
S'yunmini'
p1685
a(dp1686
S'name'
p1687
S'Arduino Y\xc3\xban Mini'
p1688
sS'vid'
p1689
(dp1690
g24
S'0x2a03'
p1691
sg26
S'0x2a03'
p1692
ssS'pid'
p1693
(dp1694
g24
S'0x8050'
p1695
sg26
S'0x0050'
p1696
ssS'upload'
p1697
(dp1698
S'protocol'
p1699
S'avr109'
p1700
sS'disable_flushing'
p1701
S'true'
p1702
sS'tool'
p1703
S'avrdude'
p1704
sS'maximum_data_size'
p1705
S'2560'
p1706
sS'via_ssh'
p1707
S'true'
p1708
sS'maximum_size'
p1709
S'28672'
p1710
sS'use_1200bps_touch'
p1711
S'true'
p1712
sS'speed'
p1713
S'57600'
p1714
sS'wait_for_upload_port'
p1715
S'true'
p1716
ssS'build'
p1717
(dp1718
S'core'
p1719
S'arduino'
p1720
sS'f_cpu'
p1721
S'16000000L'
p1722
sS'vid'
p1723
S'0x2a03'
p1724
sS'usb_product'
p1725
S'"Arduino Y\xc3\xban Mini"'
p1726
sS'pid'
p1727
S'0x8050'
p1728
sS'extra_flags'
p1729
S'{build.usb_flags}'
p1730
sS'board'
p1731
S'AVR_YUNMINI'
p1732
sS'mcu'
p1733
S'atmega32u4'
p1734
sS'variant'
p1735
S'yun'
p1736
ssg15
S'/usr/share/arduino/hardware/archlinux-arduino/avr'
p1737
sS'bootloader'
p1738
(dp1739
S'extended_fuses'
p1740
S'0xfb'
p1741
sS'high_fuses'
p1742
S'0xd8'
p1743
sS'low_fuses'
p1744
S'0xff'
p1745
sS'lock_bits'
p1746
S'0x2F'
p1747
sS'tool'
p1748
S'avrdude'
p1749
sS'file'
p1750
S'caterina/Caterina-Yunmini.hex'
p1751
sS'unlock_bits'
p1752
S'0x3F'
p1753
ssaa(lp1754
S'chiwawa'
p1755
a(dp1756
S'name'
p1757
S'Arduino Industrial 101'
p1758
sS'vid'
p1759
(dp1760
g24
S'0x2a03'
p1761
sg26
S'0x2a03'
p1762
ssS'pid'
p1763
(dp1764
g24
S'0x8056'
p1765
sg26
S'0x0056'
p1766
ssS'upload'
p1767
(dp1768
S'protocol'
p1769
S'avr109'
p1770
sS'disable_flushing'
p1771
S'true'
p1772
sS'tool'
p1773
S'avrdude'
p1774
sS'maximum_data_size'
p1775
S'2560'
p1776
sS'via_ssh'
p1777
S'true'
p1778
sS'maximum_size'
p1779
S'28672'
p1780
sS'use_1200bps_touch'
p1781
S'true'
p1782
sS'speed'
p1783
S'57600'
p1784
sS'wait_for_upload_port'
p1785
S'true'
p1786
ssS'build'
p1787
(dp1788
S'core'
p1789
S'arduino'
p1790
sS'f_cpu'
p1791
S'16000000L'
p1792
sS'vid'
p1793
S'0x2a03'
p1794
sS'usb_product'
p1795
S'"Arduino Industrial 101"'
p1796
sS'pid'
p1797
S'0x8056'
p1798
sS'extra_flags'
p1799
S'{build.usb_flags}'
p1800
sS'board'
p1801
S'AVR_INDUSTRIAL101'
p1802
sS'mcu'
p1803
S'atmega32u4'
p1804
sS'variant'
p1805
S'yun'
p1806
ssg15
S'/usr/share/arduino/hardware/archlinux-arduino/avr'
p1807
sS'bootloader'
p1808
(dp1809
S'extended_fuses'
p1810
S'0xfb'
p1811
sS'high_fuses'
p1812
S'0xd8'
p1813
sS'low_fuses'
p1814
S'0xff'
p1815
sS'lock_bits'
p1816
S'0x2F'
p1817
sS'tool'
p1818
S'avrdude'
p1819
sS'file'
p1820
S'caterina/Caterina-Industrial101.hex'
p1821
sS'unlock_bits'
p1822
S'0x3F'
p1823
ssaa(lp1824
S'one'
p1825
a(dp1826
S'name'
p1827
S'Linino One'
p1828
sS'vid'
p1829
(dp1830
g24
S'0x2a03'
p1831
sg26
S'0x2a03'
p1832
ssS'pid'
p1833
(dp1834
g24
S'0x8001'
p1835
sg26
S'0x0001'
p1836
ssS'upload'
p1837
(dp1838
S'protocol'
p1839
S'avr109'
p1840
sS'disable_flushing'
p1841
S'true'
p1842
sS'tool'
p1843
S'avrdude'
p1844
sS'maximum_data_size'
p1845
S'2560'
p1846
sS'via_ssh'
p1847
S'true'
p1848
sS'maximum_size'
p1849
S'28672'
p1850
sS'use_1200bps_touch'
p1851
S'true'
p1852
sS'speed'
p1853
S'57600'
p1854
sS'wait_for_upload_port'
p1855
S'true'
p1856
ssS'build'
p1857
(dp1858
S'core'
p1859
S'arduino'
p1860
sS'f_cpu'
p1861
S'16000000L'
p1862
sS'vid'
p1863
S'0x2a03'
p1864
sS'usb_product'
p1865
S'"Linino One"'
p1866
sS'pid'
p1867
S'0x8001'
p1868
sS'extra_flags'
p1869
S'{build.usb_flags}'
p1870
sS'board'
p1871
S'AVR_LININO_ONE'
p1872
sS'mcu'
p1873
S'atmega32u4'
p1874
sS'variant'
p1875
S'yun'
p1876
ssg15
S'/usr/share/arduino/hardware/archlinux-arduino/avr'
p1877
sS'bootloader'
p1878
(dp1879
S'extended_fuses'
p1880
S'0xfb'
p1881
sS'high_fuses'
p1882
S'0xd8'
p1883
sS'low_fuses'
p1884
S'0xff'
p1885
sS'lock_bits'
p1886
S'0x2F'
p1887
sS'tool'
p1888
S'avrdude'
p1889
sS'file'
p1890
S'caterina/Caterina-LininoOne.hex'
p1891
sS'unlock_bits'
p1892
S'0x3F'
p1893
ssaa(lp1894
S'unowifi'
p1895
a(dp1896
S'name'
p1897
S'Arduino Uno WiFi'
p1898
sS'vid'
p1899
(dp1900
g26
S'0x2A03'
p1901
ssS'pid'
p1902
(dp1903
g26
S'0x0057'
p1904
ssS'upload'
p1905
(dp1906
S'protocol'
p1907
S'arduino'
p1908
sS'network'
p1909
(dp1910
S'endpoint_reset'
p1911
S'/log/reset'
p1912
sS'endpoint_upload'
p1913
S'/pgm/upload'
p1914
sS'sync_return'
p1915
S'204:SYNC'
p1916
sS'endpoint_sync'
p1917
S'/pgm/sync'
p1918
sS'port'
p1919
S'80'
p1920
ssS'tool'
p1921
S'avrdude'
p1922
sS'maximum_data_size'
p1923
S'2048'
p1924
sS'maximum_size'
p1925
S'32256'
p1926
sS'speed'
p1927
S'115200'
p1928
ssS'build'
p1929
(dp1930
S'core'
p1931
S'arduino'
p1932
sS'f_cpu'
p1933
S'16000000L'
p1934
sS'variant'
p1935
S'standard'
p1936
sS'extra_flags'
p1937
S'-DESP_CH_UART -DESP_CH_UART_BR={build.esp_ch_uart_br}'
p1938
sS'esp_ch_uart_br'
p1939
S'19200'
p1940
sS'board'
p1941
S'AVR_UNO_WIFI_DEV_ED'
p1942
sS'mcu'
p1943
S'atmega328p'
p1944
ssg15
S'/usr/share/arduino/hardware/archlinux-arduino/avr'
p1945
sS'bootloader'
p1946
(dp1947
S'extended_fuses'
p1948
S'0x05'
p1949
sS'high_fuses'
p1950
S'0xDE'
p1951
sS'low_fuses'
p1952
S'0xFF'
p1953
sS'lock_bits'
p1954
S'0x0F'
p1955
sS'tool'
p1956
S'avrdude'
p1957
sS'file'
p1958
S'optiboot/optiboot_atmega328.hex'
p1959
sS'unlock_bits'
p1960
S'0x3F'
p1961
ssaatp1962
Rp1963
(dp1964
S'default'
p1965
S'uno'
p1966
sbtp1967
a(S'boards.txt'
p1968
(lp1969
S'/usr/share/arduino/hardware/arduino/avr/boards.txt'
p1970
aS'/usr/share/arduino/hardware/archlinux-arduino/avr/boards.txt'
p1971
atp1972
a.